# SymbolsHelper-Confirmed: 16.04 amd64
libKF5IncidenceEditor.so.5 libkf5incidenceeditor5 #MINVER#, libkf5incidenceeditor-bin
 _ZN11KIconEngineD0Ev@Base 16.04
 _ZN11KIconEngineD1Ev@Base 16.04
 _ZN11KIconEngineD2Ev@Base 16.04
 _ZN17IncidenceEditorNG12EditorConfig15setEditorConfigEPS0_@Base 16.04
 _ZN17IncidenceEditorNG12EditorConfig7Private6configE@Base 16.04
 _ZN17IncidenceEditorNG12EditorConfig8instanceEv@Base 16.04
 _ZN17IncidenceEditorNG12EditorConfig9templatesEN8KCalCore13IncidenceBase13IncidenceTypeE@Base 16.04
 _ZN17IncidenceEditorNG12EditorConfigC1Ev@Base 16.04
 _ZN17IncidenceEditorNG12EditorConfigC2Ev@Base 16.04
 _ZN17IncidenceEditorNG12EditorConfigD0Ev@Base 16.04
 _ZN17IncidenceEditorNG12EditorConfigD1Ev@Base 16.04
 _ZN17IncidenceEditorNG12EditorConfigD2Ev@Base 16.04
 _ZN17IncidenceEditorNG15IncidenceDialog10closeEventEP11QCloseEvent@Base 16.04
 _ZN17IncidenceEditorNG15IncidenceDialog10readConfigEv@Base 16.04
 _ZN17IncidenceEditorNG15IncidenceDialog11qt_metacallEN11QMetaObject4CallEiPPv@Base 16.04
 _ZN17IncidenceEditorNG15IncidenceDialog11qt_metacastEPKc@Base 16.04
 _ZN17IncidenceEditorNG15IncidenceDialog11writeConfigEv@Base 16.04
 _ZN17IncidenceEditorNG15IncidenceDialog16incidenceCreatedERKN7Akonadi4ItemE@Base 16.04
 _ZN17IncidenceEditorNG15IncidenceDialog16selectCollectionERKN7Akonadi10CollectionE@Base 16.04
 _ZN17IncidenceEditorNG15IncidenceDialog16staticMetaObjectE@Base 16.04
 _ZN17IncidenceEditorNG15IncidenceDialog17setInitiallyDirtyEb@Base 16.04
 _ZN17IncidenceEditorNG15IncidenceDialog17slotButtonClickedEi@Base 16.04
 _ZN17IncidenceEditorNG15IncidenceDialog20setIsCounterProposalEb@Base 16.04
 _ZN17IncidenceEditorNG15IncidenceDialog30handleSelectedCollectionChangeERKN7Akonadi10CollectionE@Base 16.04
 _ZN17IncidenceEditorNG15IncidenceDialog4loadERKN7Akonadi4ItemERK5QDate@Base 16.04
 _ZN17IncidenceEditorNG15IncidenceDialogC1EPN7Akonadi16IncidenceChangerEP7QWidget6QFlagsIN2Qt10WindowTypeEE@Base 16.04
 _ZN17IncidenceEditorNG15IncidenceDialogC2EPN7Akonadi16IncidenceChangerEP7QWidget6QFlagsIN2Qt10WindowTypeEE@Base 16.04
 _ZN17IncidenceEditorNG15IncidenceDialogD0Ev@Base 16.04
 _ZN17IncidenceEditorNG15IncidenceDialogD1Ev@Base 16.04
 _ZN17IncidenceEditorNG15IncidenceDialogD2Ev@Base 16.04
 _ZN17IncidenceEditorNG15IncidenceEditor11qt_metacallEN11QMetaObject4CallEiPPv@Base 16.04
 _ZN17IncidenceEditorNG15IncidenceEditor11qt_metacastEPKc@Base 16.04
 _ZN17IncidenceEditorNG15IncidenceEditor16checkDirtyStatusEv@Base 16.04
 _ZN17IncidenceEditorNG15IncidenceEditor16staticMetaObjectE@Base 16.04
 _ZN17IncidenceEditorNG15IncidenceEditor17focusInvalidFieldEv@Base 16.04
 _ZN17IncidenceEditorNG15IncidenceEditor18dirtyStatusChangedEb@Base 16.04
 _ZN17IncidenceEditorNG15IncidenceEditor4loadERKN7Akonadi4ItemE@Base 16.04
 _ZN17IncidenceEditorNG15IncidenceEditor4saveERN7Akonadi4ItemE@Base 16.04
 _ZN17IncidenceEditorNG15IncidenceEditorC1EP7QObject@Base 16.04
 _ZN17IncidenceEditorNG15IncidenceEditorC2EP7QObject@Base 16.04
 _ZN17IncidenceEditorNG15IncidenceEditorD0Ev@Base 16.04
 _ZN17IncidenceEditorNG15IncidenceEditorD1Ev@Base 16.04
 _ZN17IncidenceEditorNG15IncidenceEditorD2Ev@Base 16.04
 _ZN17IncidenceEditorNG16ConflictResolver11qt_metacallEN11QMetaObject4CallEiPPv@Base 16.04
 _ZN17IncidenceEditorNG16ConflictResolver11qt_metacastEPKc@Base 16.04
 _ZN17IncidenceEditorNG16ConflictResolver12findFreeSlotERKN8KCalCore6PeriodE@Base 16.04
 _ZN17IncidenceEditorNG16ConflictResolver13setLatestDateERK5QDate@Base 16.04
 _ZN17IncidenceEditorNG16ConflictResolver13setLatestTimeERK5QTime@Base 16.04
 _ZN17IncidenceEditorNG16ConflictResolver13setResolutionEi@Base 16.04
 _ZN17IncidenceEditorNG16ConflictResolver14clearAttendeesEv@Base 16.04
 _ZN17IncidenceEditorNG16ConflictResolver14insertAttendeeERK14QSharedPointerIN4KPIM12FreeBusyItemEE@Base 16.04
 _ZN17IncidenceEditorNG16ConflictResolver14insertAttendeeERK14QSharedPointerIN8KCalCore8AttendeeEE@Base 16.04
 _ZN17IncidenceEditorNG16ConflictResolver14removeAttendeeERK14QSharedPointerIN8KCalCore8AttendeeEE@Base 16.04
 _ZN17IncidenceEditorNG16ConflictResolver15setEarliestDateERK5QDate@Base 16.04
 _ZN17IncidenceEditorNG16ConflictResolver15setEarliestTimeERK5QTime@Base 16.04
 _ZN17IncidenceEditorNG16ConflictResolver16containsAttendeeERK14QSharedPointerIN8KCalCore8AttendeeEE@Base 16.04
 _ZN17IncidenceEditorNG16ConflictResolver16dateTimesChangedERK9KDateTimeS3_@Base 16.04
 _ZN17IncidenceEditorNG16ConflictResolver16findAllFreeSlotsEv@Base 16.04
 _ZN17IncidenceEditorNG16ConflictResolver16staticMetaObjectE@Base 16.04
 _ZN17IncidenceEditorNG16ConflictResolver17conflictsDetectedEi@Base 16.04
 _ZN17IncidenceEditorNG16ConflictResolver17setLatestDateTimeERK9KDateTime@Base 16.04
 _ZN17IncidenceEditorNG16ConflictResolver17setMandatoryRolesERK4QSetIN8KCalCore8Attendee4RoleEE@Base 16.04
 _ZN17IncidenceEditorNG16ConflictResolver18calculateConflictsEv@Base 16.04
 _ZN17IncidenceEditorNG16ConflictResolver18freeSlotsAvailableERK7QVectorIN8KCalCore6PeriodEE@Base 16.04
 _ZN17IncidenceEditorNG16ConflictResolver18setAllowedWeekdaysERK9QBitArray@Base 16.04
 _ZN17IncidenceEditorNG16ConflictResolver19freebusyDataChangedEv@Base 16.04
 _ZN17IncidenceEditorNG16ConflictResolver19setEarliestDateTimeERK9KDateTime@Base 16.04
 _ZN17IncidenceEditorNG16ConflictResolver21matchesRoleConstraintERK14QSharedPointerIN8KCalCore8AttendeeEE@Base 16.04
 _ZN17IncidenceEditorNG16ConflictResolver7tryDateER9KDateTimeS2_@Base 16.04
 _ZN17IncidenceEditorNG16ConflictResolver7tryDateERK14QSharedPointerIN8KCalCore8FreeBusyEER9KDateTimeS8_@Base 16.04
 _ZN17IncidenceEditorNG16ConflictResolverC1EP7QWidgetP7QObject@Base 16.04
 _ZN17IncidenceEditorNG16ConflictResolverC2EP7QWidgetP7QObject@Base 16.04
 _ZN17IncidenceEditorNG17IncidenceDefaults12setAttendeesERK11QStringList@Base 16.04
 _ZN17IncidenceEditorNG17IncidenceDefaults13setFullEmailsERK11QStringList@Base 16.04
 _ZN17IncidenceEditorNG17IncidenceDefaults14setAttachmentsERK11QStringListS3_S3_b@Base 16.04
 _ZN17IncidenceEditorNG17IncidenceDefaults14setEndDateTimeERK9KDateTime@Base 16.04
 _ZN17IncidenceEditorNG17IncidenceDefaults16setStartDateTimeERK9KDateTime@Base 16.04
 _ZN17IncidenceEditorNG17IncidenceDefaults18setGroupWareDomainERK7QString@Base 16.04
 _ZN17IncidenceEditorNG17IncidenceDefaults19invalidEmailAddressEv@Base 16.04
 _ZN17IncidenceEditorNG17IncidenceDefaults19setRelatedIncidenceERK14QSharedPointerIN8KCalCore9IncidenceEE@Base 16.04
 _ZN17IncidenceEditorNG17IncidenceDefaults24minimalIncidenceDefaultsEb@Base 16.04
 _ZN17IncidenceEditorNG17IncidenceDefaultsC1ERKS0_@Base 16.04
 _ZN17IncidenceEditorNG17IncidenceDefaultsC1Eb@Base 16.04
 _ZN17IncidenceEditorNG17IncidenceDefaultsC2ERKS0_@Base 16.04
 _ZN17IncidenceEditorNG17IncidenceDefaultsC2Eb@Base 16.04
 _ZN17IncidenceEditorNG17IncidenceDefaultsD1Ev@Base 16.04
 _ZN17IncidenceEditorNG17IncidenceDefaultsD2Ev@Base 16.04
 _ZN17IncidenceEditorNG17IncidenceDefaultsaSERKS0_@Base 16.04
 _ZN17IncidenceEditorNG17KTimeZoneComboBox11qt_metacallEN11QMetaObject4CallEiPPv@Base 16.04
 _ZN17IncidenceEditorNG17KTimeZoneComboBox11qt_metacastEPKc@Base 16.04
 _ZN17IncidenceEditorNG17KTimeZoneComboBox11setFloatingEbRKN9KDateTime4SpecE@Base 16.04
 _ZN17IncidenceEditorNG17KTimeZoneComboBox14selectTimeSpecERKN9KDateTime4SpecE@Base 16.04
 _ZN17IncidenceEditorNG17KTimeZoneComboBox16staticMetaObjectE@Base 16.04
 _ZN17IncidenceEditorNG17KTimeZoneComboBox19selectLocalTimeSpecEv@Base 16.04
 _ZN17IncidenceEditorNG17KTimeZoneComboBox22setAdditionalTimeZonesEPKN8KCalCore13ICalTimeZonesE@Base 16.04
 _ZN17IncidenceEditorNG17KTimeZoneComboBoxC1EP7QWidget@Base 16.04
 _ZN17IncidenceEditorNG17KTimeZoneComboBoxC1EPKN8KCalCore13ICalTimeZonesEP7QWidget@Base 16.04
 _ZN17IncidenceEditorNG17KTimeZoneComboBoxC2EP7QWidget@Base 16.04
 _ZN17IncidenceEditorNG17KTimeZoneComboBoxC2EPKN8KCalCore13ICalTimeZonesEP7QWidget@Base 16.04
 _ZN17IncidenceEditorNG17KTimeZoneComboBoxD0Ev@Base 16.04
 _ZN17IncidenceEditorNG17KTimeZoneComboBoxD1Ev@Base 16.04
 _ZN17IncidenceEditorNG17KTimeZoneComboBoxD2Ev@Base 16.04
 _ZN17IncidenceEditorNG18ResourceManagement11qt_metacallEN11QMetaObject4CallEiPPv@Base 16.04
 _ZN17IncidenceEditorNG18ResourceManagement11qt_metacastEPKc@Base 16.04
 _ZN17IncidenceEditorNG18ResourceManagement11showDetailsERKN5KLDAP10LdapObjectERKNS1_10LdapClientE@Base 16.04
 _ZN17IncidenceEditorNG18ResourceManagement15slotDateChangedERK5QDateS3_@Base 16.04
 _ZN17IncidenceEditorNG18ResourceManagement15slotShowDetailsERK11QModelIndex@Base 16.04
 _ZN17IncidenceEditorNG18ResourceManagement15slotStartSearchERK7QString@Base 16.04
 _ZN17IncidenceEditorNG18ResourceManagement16staticMetaObjectE@Base 16.04
 _ZN17IncidenceEditorNG18ResourceManagement17slotLayoutChangedEv@Base 16.04
 _ZN17IncidenceEditorNG18ResourceManagement23slotOwnerSearchFinishedEv@Base 16.04
 _ZN17IncidenceEditorNG18ResourceManagementC1EP7QWidget@Base 16.04
 _ZN17IncidenceEditorNG18ResourceManagementC2EP7QWidget@Base 16.04
 _ZN17IncidenceEditorNG18ResourceManagementD0Ev@Base 16.04
 _ZN17IncidenceEditorNG18ResourceManagementD1Ev@Base 16.04
 _ZN17IncidenceEditorNG18ResourceManagementD2Ev@Base 16.04
 _ZN17IncidenceEditorNG19GroupwareUiDelegate11setCalendarERK14QSharedPointerIN7Akonadi11ETMCalendarEE@Base 16.04
 _ZN17IncidenceEditorNG19GroupwareUiDelegate14createCalendarEv@Base 16.04
 _ZN17IncidenceEditorNG19GroupwareUiDelegate22requestIncidenceEditorERKN7Akonadi4ItemE@Base 16.04
 _ZN17IncidenceEditorNG22IncidenceDialogFactory16createTodoEditorERK7QStringS3_RK11QStringListS6_S6_S6_bRKN7Akonadi10CollectionEbP7QWidget6QFlagsIN2Qt10WindowTypeEE@Base 16.04
 _ZN17IncidenceEditorNG22IncidenceDialogFactory17createEventEditorERK7QStringS3_RK11QStringListS6_S6_S6_bRKN7Akonadi10CollectionEbP7QWidget6QFlagsIN2Qt10WindowTypeEE@Base 16.04
 _ZN17IncidenceEditorNG22IncidenceDialogFactory6createEbN8KCalCore13IncidenceBase13IncidenceTypeEPN7Akonadi16IncidenceChangerEP7QWidget6QFlagsIN2Qt10WindowTypeEE@Base 16.04
 _ZN17IncidenceEditorNG22KOrganizerEditorConfig9templatesEN8KCalCore13IncidenceBase13IncidenceTypeE@Base 16.04
 _ZN17IncidenceEditorNG22KOrganizerEditorConfigC1Ev@Base 16.04
 _ZN17IncidenceEditorNG22KOrganizerEditorConfigC2Ev@Base 16.04
 _ZN17IncidenceEditorNG22KOrganizerEditorConfigD0Ev@Base 16.04
 _ZN17IncidenceEditorNG22KOrganizerEditorConfigD1Ev@Base 16.04
 _ZN17IncidenceEditorNG22KOrganizerEditorConfigD2Ev@Base 16.04
 _ZN17IncidenceEditorNG23FreeBusyGanttProxyModelC1EP7QObject@Base 16.04
 _ZN17IncidenceEditorNG23FreeBusyGanttProxyModelC2EP7QObject@Base 16.04
 _ZN17IncidenceEditorNG23IncidenceEditorSettings11qt_metacallEN11QMetaObject4CallEiPPv@Base 16.04
 _ZN17IncidenceEditorNG23IncidenceEditorSettings11qt_metacastEPKc@Base 16.04
 _ZN17IncidenceEditorNG23IncidenceEditorSettings16staticMetaObjectE@Base 16.04
 _ZN17IncidenceEditorNG23IncidenceEditorSettings4selfEv@Base 16.04
 _ZN17IncidenceEditorNG23IncidenceEditorSettings5mSelfE@Base 16.04
 _ZN17IncidenceEditorNG23IncidenceEditorSettingsC1Ev@Base 16.04
 _ZN17IncidenceEditorNG23IncidenceEditorSettingsC2Ev@Base 16.04
 _ZN17IncidenceEditorNG23IncidenceEditorSettingsD0Ev@Base 16.04
 _ZN17IncidenceEditorNG23IncidenceEditorSettingsD1Ev@Base 16.04
 _ZN17IncidenceEditorNG23IncidenceEditorSettingsD2Ev@Base 16.04
 _ZN17IncidenceEditorNG30IndividualMailComponentFactory11onSetUpdateERK14QSharedPointerIN8KCalCore9IncidenceEERK7QVectorIS1_INS2_8AttendeeEEE@Base 16.04
 _ZN17IncidenceEditorNG30IndividualMailComponentFactory11qt_metacallEN11QMetaObject4CallEiPPv@Base 16.04
 _ZN17IncidenceEditorNG30IndividualMailComponentFactory11qt_metacastEPKc@Base 16.04
 _ZN17IncidenceEditorNG30IndividualMailComponentFactory16staticMetaObjectE@Base 16.04
 _ZN17IncidenceEditorNG30IndividualMailComponentFactory21createMessageQueueJobERK14QSharedPointerIN8KCalCore13IncidenceBaseEERKN19KIdentityManagement8IdentityEP7QObject@Base 16.04
 _ZN17IncidenceEditorNG30IndividualMailComponentFactory30createITIPHanderDialogDelegateERK14QSharedPointerIN8KCalCore9IncidenceEENS2_10iTIPMethodEP7QWidget@Base 16.04
 _ZN17IncidenceEditorNG30IndividualMailComponentFactory9onSetEditERK14QSharedPointerIN8KCalCore9IncidenceEERK7QVectorIS1_INS2_8AttendeeEEE@Base 16.04
 _ZN17IncidenceEditorNG30IndividualMailComponentFactoryC1EP7QObject@Base 16.04
 _ZN17IncidenceEditorNG30IndividualMailComponentFactoryC2EP7QObject@Base 16.04
 (optional=templinst)_ZN7Akonadi4Item14setPayloadImplI14QSharedPointerIN8KCalCore9IncidenceEEEENSt9enable_ifIXntsrNS_8Internal12PayloadTraitIT_EE13isPolymorphicEvE4typeERKS9_@Base 16.04
 (optional=templinst)_ZNK12KConfigGroup9readEntryI5QSizeEET_PKcRKS2_@Base 16.04
 _ZNK17IncidenceEditorNG12EditorConfig10fullEmailsEv@Base 16.04
 _ZNK17IncidenceEditorNG12EditorConfig37showTimeZoneSelectorInIncidenceEditorEv@Base 16.04
 _ZNK17IncidenceEditorNG12EditorConfig5emailEv@Base 16.04
 _ZNK17IncidenceEditorNG12EditorConfig8fullNameEv@Base 16.04
 _ZNK17IncidenceEditorNG12EditorConfig8thatIsMeERK7QString@Base 16.04
 _ZNK17IncidenceEditorNG12EditorConfig9allEmailsEv@Base 16.04
 _ZNK17IncidenceEditorNG15IncidenceDialog10metaObjectEv@Base 16.04
 _ZNK17IncidenceEditorNG15IncidenceDialog17invalidCollectionEv@Base 16.04
 _ZNK17IncidenceEditorNG15IncidenceDialog17typeAheadReceiverEv@Base 16.04
 _ZNK17IncidenceEditorNG15IncidenceDialog4itemEv@Base 16.04
 _ZNK17IncidenceEditorNG15IncidenceEditor10metaObjectEv@Base 16.04
 _ZNK17IncidenceEditorNG15IncidenceEditor14printDebugInfoEv@Base 16.04
 _ZNK17IncidenceEditorNG15IncidenceEditor15lastErrorStringEv@Base 16.04
 _ZNK17IncidenceEditorNG15IncidenceEditor4typeEv@Base 16.04
 _ZNK17IncidenceEditorNG15IncidenceEditor7isValidEv@Base 16.04
 _ZNK17IncidenceEditorNG16ConflictResolver10metaObjectEv@Base 16.04
 _ZNK17IncidenceEditorNG16ConflictResolver14availableSlotsEv@Base 16.04
 _ZNK17IncidenceEditorNG16ConflictResolver5modelEv@Base 16.04
 _ZNK17IncidenceEditorNG17IncidenceDefaults11setDefaultsERK14QSharedPointerIN8KCalCore9IncidenceEE@Base 16.04
 _ZNK17IncidenceEditorNG17KTimeZoneComboBox10metaObjectEv@Base 16.04
 _ZNK17IncidenceEditorNG17KTimeZoneComboBox16selectedTimeSpecEv@Base 16.04
 _ZNK17IncidenceEditorNG18ResourceManagement10metaObjectEv@Base 16.04
 _ZNK17IncidenceEditorNG18ResourceManagement12selectedItemEv@Base 16.04
 _ZNK17IncidenceEditorNG22KOrganizerEditorConfig10fullEmailsEv@Base 16.04
 _ZNK17IncidenceEditorNG22KOrganizerEditorConfig12reminderTimeEv@Base 16.04
 _ZNK17IncidenceEditorNG22KOrganizerEditorConfig13audioFilePathEv@Base 16.04
 _ZNK17IncidenceEditorNG22KOrganizerEditorConfig15defaultDurationEv@Base 16.04
 _ZNK17IncidenceEditorNG22KOrganizerEditorConfig17reminderTimeUnitsEv@Base 16.04
 _ZNK17IncidenceEditorNG22KOrganizerEditorConfig20activeDesignerFieldsEv@Base 16.04
 _ZNK17IncidenceEditorNG22KOrganizerEditorConfig20defaultTodoRemindersEv@Base 16.04
 _ZNK17IncidenceEditorNG22KOrganizerEditorConfig21defaultEventRemindersEv@Base 16.04
 _ZNK17IncidenceEditorNG22KOrganizerEditorConfig25defaultAudioFileRemindersEv@Base 16.04
 _ZNK17IncidenceEditorNG22KOrganizerEditorConfig37showTimeZoneSelectorInIncidenceEditorEv@Base 16.04
 _ZNK17IncidenceEditorNG22KOrganizerEditorConfig5emailEv@Base 16.04
 _ZNK17IncidenceEditorNG22KOrganizerEditorConfig6configEv@Base 16.04
 _ZNK17IncidenceEditorNG22KOrganizerEditorConfig8fullNameEv@Base 16.04
 _ZNK17IncidenceEditorNG22KOrganizerEditorConfig8thatIsMeERK7QString@Base 16.04
 _ZNK17IncidenceEditorNG22KOrganizerEditorConfig9allEmailsEv@Base 16.04
 _ZNK17IncidenceEditorNG22KOrganizerEditorConfig9startTimeEv@Base 16.04
 _ZNK17IncidenceEditorNG23FreeBusyGanttProxyModel10tooltipifyERKN8KCalCore14FreeBusyPeriodERKN9KDateTime4SpecE@Base 16.04
 _ZNK17IncidenceEditorNG23FreeBusyGanttProxyModel4dataERK11QModelIndexi@Base 16.04
 _ZNK17IncidenceEditorNG23IncidenceEditorSettings10metaObjectEv@Base 16.04
 _ZNK17IncidenceEditorNG30IndividualMailComponentFactory10metaObjectEv@Base 16.04
 (optional=templinst)_ZNK7Akonadi4Item11payloadImplI14QSharedPointerIN8KCalCore9IncidenceEEEENSt9enable_ifIXntsrNS_8Internal12PayloadTraitIT_EE13isPolymorphicES9_E4typeEv@Base 16.04
 (optional=templinst)_ZNK7Akonadi4Item11payloadImplIN9KContacts12ContactGroupEEENSt9enable_ifIXntsrNS_8Internal12PayloadTraitIT_EE13isPolymorphicES7_E4typeEv@Base 16.04
 (optional=templinst)_ZNK7Akonadi4Item11payloadImplIN9KContacts9AddresseeEEENSt9enable_ifIXntsrNS_8Internal12PayloadTraitIT_EE13isPolymorphicES7_E4typeEv@Base 16.04
 (optional=templinst)_ZNK7Akonadi4Item14tryToCloneImplI14QSharedPointerIN8KCalCore9IncidenceEEN5boost10shared_ptrIS4_EEEENSt9enable_ifIXntsrSt7is_sameIT_T0_E5valueEbE4typeEPSB_PKi@Base 16.04
 (optional=templinst)_ZNK7Akonadi4Item14tryToCloneImplI14QSharedPointerIN8KCalCore9IncidenceEESt10shared_ptrIS4_EEENSt9enable_ifIXntsrSt7is_sameIT_T0_E5valueEbE4typeEPSA_PKi@Base 16.04
 _ZTI11KIconEngine@Base 16.04
 _ZTIN17IncidenceEditorNG12EditorConfigE@Base 16.04
 _ZTIN17IncidenceEditorNG15IncidenceDialogE@Base 16.04
 _ZTIN17IncidenceEditorNG15IncidenceEditorE@Base 16.04
 _ZTIN17IncidenceEditorNG16ConflictResolverE@Base 16.04
 _ZTIN17IncidenceEditorNG17KTimeZoneComboBoxE@Base 16.04
 _ZTIN17IncidenceEditorNG18ResourceManagementE@Base 16.04
 _ZTIN17IncidenceEditorNG19GroupwareUiDelegateE@Base 16.04
 _ZTIN17IncidenceEditorNG22KOrganizerEditorConfigE@Base 16.04
 _ZTIN17IncidenceEditorNG23FreeBusyGanttProxyModelE@Base 16.04
 _ZTIN17IncidenceEditorNG23IncidenceEditorSettingsE@Base 16.04
 _ZTIN17IncidenceEditorNG30IndividualMailComponentFactoryE@Base 16.04
 _ZTIN4KPIM19MultiplyingLineDataE@Base 16.04
 _ZTS11KIconEngine@Base 16.04
 _ZTSN17IncidenceEditorNG12EditorConfigE@Base 16.04
 _ZTSN17IncidenceEditorNG15IncidenceDialogE@Base 16.04
 _ZTSN17IncidenceEditorNG15IncidenceEditorE@Base 16.04
 _ZTSN17IncidenceEditorNG16ConflictResolverE@Base 16.04
 _ZTSN17IncidenceEditorNG17KTimeZoneComboBoxE@Base 16.04
 _ZTSN17IncidenceEditorNG18ResourceManagementE@Base 16.04
 _ZTSN17IncidenceEditorNG19GroupwareUiDelegateE@Base 16.04
 _ZTSN17IncidenceEditorNG22KOrganizerEditorConfigE@Base 16.04
 _ZTSN17IncidenceEditorNG23FreeBusyGanttProxyModelE@Base 16.04
 _ZTSN17IncidenceEditorNG23IncidenceEditorSettingsE@Base 16.04
 _ZTSN17IncidenceEditorNG30IndividualMailComponentFactoryE@Base 16.04
 _ZTSN4KPIM19MultiplyingLineDataE@Base 16.04
 _ZTV11KIconEngine@Base 16.04
 _ZTVN17IncidenceEditorNG12EditorConfigE@Base 16.04
 _ZTVN17IncidenceEditorNG15IncidenceDialogE@Base 16.04
 _ZTVN17IncidenceEditorNG15IncidenceEditorE@Base 16.04
 _ZTVN17IncidenceEditorNG16ConflictResolverE@Base 16.04
 _ZTVN17IncidenceEditorNG17KTimeZoneComboBoxE@Base 16.04
 _ZTVN17IncidenceEditorNG18ResourceManagementE@Base 16.04
 _ZTVN17IncidenceEditorNG19GroupwareUiDelegateE@Base 16.04
 _ZTVN17IncidenceEditorNG22KOrganizerEditorConfigE@Base 16.04
 _ZTVN17IncidenceEditorNG23FreeBusyGanttProxyModelE@Base 16.04
 _ZTVN17IncidenceEditorNG23IncidenceEditorSettingsE@Base 16.04
 _ZTVN17IncidenceEditorNG30IndividualMailComponentFactoryE@Base 16.04
 _ZTVN4KPIM19MultiplyingLineDataE@Base 16.04
 (c++)"non-virtual thunk to IncidenceEditorNG::IncidenceDialog::~IncidenceDialog()@Base" 16.04
 (c++)"non-virtual thunk to IncidenceEditorNG::KTimeZoneComboBox::~KTimeZoneComboBox()@Base" 16.04
 (c++)"non-virtual thunk to IncidenceEditorNG::ResourceManagement::~ResourceManagement()@Base" 16.04
